target datalayout = "e-m:e-p270:32:32-p271:32:32-p272:64:64-i64:64-i128:128-f80:128-n8:16:32:64-S128"
target triple = "x86_64-pc-linux-gnu"

%struct.st__table = type { ptr, ptr, i32, i32, i32, i32, double, ptr }
%struct.st__table_entry = type { ptr, ptr, ptr }

; Function Attrs: inlinehint nounwind uwtable
define internal i32 @Abc_AbsInt(i32 noundef %0) #4 {
  %2 = alloca i32, align 4
  store i32 %0, ptr %2, align 4, !tbaa !7
  %3 = load i32, ptr %2, align 4, !tbaa !7
  %4 = icmp slt i32 %3, 0
  br i1 %4, label %5, label %8

5:                                                ; preds = %1
  %6 = load i32, ptr %2, align 4, !tbaa !7
  %7 = sub nsw i32 0, %6
  br label %10

8:                                                ; preds = %1
  %9 = load i32, ptr %2, align 4, !tbaa !7
  br label %10

10:                                               ; preds = %8, %5
  %11 = phi i32 [ %7, %5 ], [ %9, %8 ]
  ret i32 %11
}

; Function Attrs: nounwind uwtable
define internal i32 @rehash(ptr noundef %0) #0 {
  %2 = alloca i32, align 4
  %3 = alloca ptr, align 8
  %4 = alloca ptr, align 8
  %5 = alloca ptr, align 8
  %6 = alloca ptr, align 8
  %7 = alloca i32, align 4
  %8 = alloca i32, align 4
  %9 = alloca i32, align 4
  %10 = alloca i32, align 4
  %11 = alloca i32, align 4
  store ptr %0, ptr %3, align 8, !tbaa !11
  call void @llvm.lifetime.start.p0(i64 8, ptr %4) #6
  call void @llvm.lifetime.start.p0(i64 8, ptr %5) #6
  call void @llvm.lifetime.start.p0(i64 8, ptr %6) #6
  call void @llvm.lifetime.start.p0(i64 4, ptr %7) #6
  call void @llvm.lifetime.start.p0(i64 4, ptr %8) #6
  call void @llvm.lifetime.start.p0(i64 4, ptr %9) #6
  call void @llvm.lifetime.start.p0(i64 4, ptr %10) #6
  %12 = load ptr, ptr %3, align 8, !tbaa !11
  %13 = getelementptr inbounds nuw %struct.st__table, ptr %12, i32 0, i32 7
  %14 = load ptr, ptr %13, align 8, !tbaa !22
  store ptr %14, ptr %6, align 8, !tbaa !35
  %15 = load ptr, ptr %3, align 8, !tbaa !11
  %16 = getelementptr inbounds nuw %struct.st__table, ptr %15, i32 0, i32 2
  %17 = load i32, ptr %16, align 8, !tbaa !21
  store i32 %17, ptr %8, align 4, !tbaa !7
  %18 = load ptr, ptr %3, align 8, !tbaa !11
  %19 = getelementptr inbounds nuw %struct.st__table, ptr %18, i32 0, i32 3
  %20 = load i32, ptr %19, align 4, !tbaa !17
  store i32 %20, ptr %10, align 4, !tbaa !7
  %21 = load ptr, ptr %3, align 8, !tbaa !11
  %22 = getelementptr inbounds nuw %struct.st__table, ptr %21, i32 0, i32 6
  %23 = load double, ptr %22, align 8, !tbaa !19
  %24 = load i32, ptr %8, align 4, !tbaa !7
  %25 = sitofp i32 %24 to double
  %26 = fmul double %23, %25
  %27 = fptosi double %26 to i32
  %28 = load ptr, ptr %3, align 8, !tbaa !11
  %29 = getelementptr inbounds nuw %struct.st__table, ptr %28, i32 0, i32 2
  store i32 %27, ptr %29, align 8, !tbaa !21
  %30 = load ptr, ptr %3, align 8, !tbaa !11
  %31 = getelementptr inbounds nuw %struct.st__table, ptr %30, i32 0, i32 2
  %32 = load i32, ptr %31, align 8, !tbaa !21
  %33 = srem i32 %32, 2
  %34 = icmp eq i32 %33, 0
  br i1 %34, label %35, label %40

35:                                               ; preds = %1
  %36 = load ptr, ptr %3, align 8, !tbaa !11
  %37 = getelementptr inbounds nuw %struct.st__table, ptr %36, i32 0, i32 2
  %38 = load i32, ptr %37, align 8, !tbaa !21
  %39 = add nsw i32 %38, 1
  store i32 %39, ptr %37, align 8, !tbaa !21
  br label %40

40:                                               ; preds = %35, %1
  %41 = load ptr, ptr %3, align 8, !tbaa !11
  %42 = getelementptr inbounds nuw %struct.st__table, ptr %41, i32 0, i32 3
  store i32 0, ptr %42, align 4, !tbaa !17
  %43 = load ptr, ptr %3, align 8, !tbaa !11
  %44 = getelementptr inbounds nuw %struct.st__table, ptr %43, i32 0, i32 2
  %45 = load i32, ptr %44, align 8, !tbaa !21
  %46 = sext i32 %45 to i64
  %47 = mul i64 8, %46
  %48 = call noalias ptr @malloc(i64 noundef %47) #7
  %49 = load ptr, ptr %3, align 8, !tbaa !11
  %50 = getelementptr inbounds nuw %struct.st__table, ptr %49, i32 0, i32 7
  store ptr %48, ptr %50, align 8, !tbaa !22
  %51 = load ptr, ptr %3, align 8, !tbaa !11
  %52 = getelementptr inbounds nuw %struct.st__table, ptr %51, i32 0, i32 7
  %53 = load ptr, ptr %52, align 8, !tbaa !22
  %54 = icmp eq ptr %53, null
  br i1 %54, label %55, label %65

55:                                               ; preds = %40
  %56 = load ptr, ptr %6, align 8, !tbaa !35
  %57 = load ptr, ptr %3, align 8, !tbaa !11
  %58 = getelementptr inbounds nuw %struct.st__table, ptr %57, i32 0, i32 7
  store ptr %56, ptr %58, align 8, !tbaa !22
  %59 = load i32, ptr %8, align 4, !tbaa !7
  %60 = load ptr, ptr %3, align 8, !tbaa !11
  %61 = getelementptr inbounds nuw %struct.st__table, ptr %60, i32 0, i32 2
  store i32 %59, ptr %61, align 8, !tbaa !21
  %62 = load i32, ptr %10, align 4, !tbaa !7
  %63 = load ptr, ptr %3, align 8, !tbaa !11
  %64 = getelementptr inbounds nuw %struct.st__table, ptr %63, i32 0, i32 3
  store i32 %62, ptr %64, align 4, !tbaa !17
  store i32 -10000, ptr %2, align 4
  store i32 1, ptr %11, align 4
  br label %179

65:                                               ; preds = %40
  store i32 0, ptr %7, align 4, !tbaa !7
  br label %66

66:                                               ; preds = %79, %65
  %67 = load i32, ptr %7, align 4, !tbaa !7
  %68 = load ptr, ptr %3, align 8, !tbaa !11
  %69 = getelementptr inbounds nuw %struct.st__table, ptr %68, i32 0, i32 2
  %70 = load i32, ptr %69, align 8, !tbaa !21
  %71 = icmp slt i32 %67, %70
  br i1 %71, label %72, label %82

72:                                               ; preds = %66
  %73 = load ptr, ptr %3, align 8, !tbaa !11
  %74 = getelementptr inbounds nuw %struct.st__table, ptr %73, i32 0, i32 7
  %75 = load ptr, ptr %74, align 8, !tbaa !22
  %76 = load i32, ptr %7, align 4, !tbaa !7
  %77 = sext i32 %76 to i64
  %78 = getelementptr inbounds ptr, ptr %75, i64 %77
  store ptr null, ptr %78, align 8, !tbaa !23
  br label %79

79:                                               ; preds = %72
  %80 = load i32, ptr %7, align 4, !tbaa !7
  %81 = add nsw i32 %80, 1
  store i32 %81, ptr %7, align 4, !tbaa !7
  br label %66, !llvm.loop !43

82:                                               ; preds = %66
  store i32 0, ptr %7, align 4, !tbaa !7
  br label %83

83:                                               ; preds = %169, %82
  %84 = load i32, ptr %7, align 4, !tbaa !7
  %85 = load i32, ptr %8, align 4, !tbaa !7
  %86 = icmp slt i32 %84, %85
  br i1 %86, label %87, label %172

87:                                               ; preds = %83
  %88 = load ptr, ptr %6, align 8, !tbaa !35
  %89 = load i32, ptr %7, align 4, !tbaa !7
  %90 = sext i32 %89 to i64
  %91 = getelementptr inbounds ptr, ptr %88, i64 %90
  %92 = load ptr, ptr %91, align 8, !tbaa !23
  store ptr %92, ptr %4, align 8, !tbaa !23
  br label %93

93:                                               ; preds = %145, %87
  %94 = load ptr, ptr %4, align 8, !tbaa !23
  %95 = icmp ne ptr %94, null
  br i1 %95, label %96, label %168

96:                                               ; preds = %93
  %97 = load ptr, ptr %4, align 8, !tbaa !23
  %98 = getelementptr inbounds nuw %struct.st__table_entry, ptr %97, i32 0, i32 2
  %99 = load ptr, ptr %98, align 8, !tbaa !27
  store ptr %99, ptr %5, align 8, !tbaa !23
  %100 = load ptr, ptr %3, align 8, !tbaa !11
  %101 = getelementptr inbounds nuw %struct.st__table, ptr %100, i32 0, i32 1
  %102 = load ptr, ptr %101, align 8, !tbaa !16
  %103 = icmp eq ptr %102, @st__ptrhash
  br i1 %103, label %104, label %116

104:                                              ; preds = %96
  %105 = load ptr, ptr %4, align 8, !tbaa !23
  %106 = getelementptr inbounds nuw %struct.st__table_entry, ptr %105, i32 0, i32 0
  %107 = load ptr, ptr %106, align 8, !tbaa !36
  %108 = ptrtoint ptr %107 to i64
  %109 = lshr i64 %108, 2
  %110 = load ptr, ptr %3, align 8, !tbaa !11
  %111 = getelementptr inbounds nuw %struct.st__table, ptr %110, i32 0, i32 2
  %112 = load i32, ptr %111, align 8, !tbaa !21
  %113 = sext i32 %112 to i64
  %114 = urem i64 %109, %113
  %115 = trunc i64 %114 to i32
  br label %145

116:                                              ; preds = %96
  %117 = load ptr, ptr %3, align 8, !tbaa !11
  %118 = getelementptr inbounds nuw %struct.st__table, ptr %117, i32 0, i32 1
  %119 = load ptr, ptr %118, align 8, !tbaa !16
  %120 = icmp eq ptr %119, @st__numhash
  br i1 %120, label %121, label %132

121:                                              ; preds = %116
  %122 = load ptr, ptr %4, align 8, !tbaa !23
  %123 = getelementptr inbounds nuw %struct.st__table_entry, ptr %122, i32 0, i32 0
  %124 = load ptr, ptr %123, align 8, !tbaa !36
  %125 = ptrtoint ptr %124 to i64
  %126 = trunc i64 %125 to i32
  %127 = call i32 @Abc_AbsInt(i32 noundef %126)
  %128 = load ptr, ptr %3, align 8, !tbaa !11
  %129 = getelementptr inbounds nuw %struct.st__table, ptr %128, i32 0, i32 2
  %130 = load i32, ptr %129, align 8, !tbaa !21
  %131 = srem i32 %127, %130
  br label %143

132:                                              ; preds = %116
  %133 = load ptr, ptr %3, align 8, !tbaa !11
  %134 = getelementptr inbounds nuw %struct.st__table, ptr %133, i32 0, i32 1
  %135 = load ptr, ptr %134, align 8, !tbaa !16
  %136 = load ptr, ptr %4, align 8, !tbaa !23
  %137 = getelementptr inbounds nuw %struct.st__table_entry, ptr %136, i32 0, i32 0
  %138 = load ptr, ptr %137, align 8, !tbaa !36
  %139 = load ptr, ptr %3, align 8, !tbaa !11
  %140 = getelementptr inbounds nuw %struct.st__table, ptr %139, i32 0, i32 2
  %141 = load i32, ptr %140, align 8, !tbaa !21
  %142 = call i32 %135(ptr noundef %138, i32 noundef %141)
  br label %143

143:                                              ; preds = %132, %121
  %144 = phi i32 [ %131, %121 ], [ %142, %132 ]
  br label %145

145:                                              ; preds = %143, %104
  %146 = phi i32 [ %115, %104 ], [ %144, %143 ]
  store i32 %146, ptr %9, align 4, !tbaa !7
  %147 = load ptr, ptr %3, align 8, !tbaa !11
  %148 = getelementptr inbounds nuw %struct.st__table, ptr %147, i32 0, i32 7
  %149 = load ptr, ptr %148, align 8, !tbaa !22
  %150 = load i32, ptr %9, align 4, !tbaa !7
  %151 = sext i32 %150 to i64
  %152 = getelementptr inbounds ptr, ptr %149, i64 %151
  %153 = load ptr, ptr %152, align 8, !tbaa !23
  %154 = load ptr, ptr %4, align 8, !tbaa !23
  %155 = getelementptr inbounds nuw %struct.st__table_entry, ptr %154, i32 0, i32 2
  store ptr %153, ptr %155, align 8, !tbaa !27
  %156 = load ptr, ptr %4, align 8, !tbaa !23
  %157 = load ptr, ptr %3, align 8, !tbaa !11
  %158 = getelementptr inbounds nuw %struct.st__table, ptr %157, i32 0, i32 7
  %159 = load ptr, ptr %158, align 8, !tbaa !22
  %160 = load i32, ptr %9, align 4, !tbaa !7
  %161 = sext i32 %160 to i64
  %162 = getelementptr inbounds ptr, ptr %159, i64 %161
  store ptr %156, ptr %162, align 8, !tbaa !23
  %163 = load ptr, ptr %3, align 8, !tbaa !11
  %164 = getelementptr inbounds nuw %struct.st__table, ptr %163, i32 0, i32 3
  %165 = load i32, ptr %164, align 4, !tbaa !17
  %166 = add nsw i32 %165, 1
  store i32 %166, ptr %164, align 4, !tbaa !17
  %167 = load ptr, ptr %5, align 8, !tbaa !23
  store ptr %167, ptr %4, align 8, !tbaa !23
  br label %93, !llvm.loop !44

168:                                              ; preds = %93
  br label %169

169:                                              ; preds = %168
  %170 = load i32, ptr %7, align 4, !tbaa !7
  %171 = add nsw i32 %170, 1
  store i32 %171, ptr %7, align 4, !tbaa !7
  br label %83, !llvm.loop !45

172:                                              ; preds = %83
  %173 = load ptr, ptr %6, align 8, !tbaa !35
  %174 = icmp ne ptr %173, null
  br i1 %174, label %175, label %177

175:                                              ; preds = %172
  %176 = load ptr, ptr %6, align 8, !tbaa !35
  call void @free(ptr noundef %176) #6
  store ptr null, ptr %6, align 8, !tbaa !35
  br label %178

177:                                              ; preds = %172
  br label %178

178:                                              ; preds = %177, %175
  store i32 1, ptr %2, align 4
  store i32 1, ptr %11, align 4
  br label %179

179:                                              ; preds = %178, %55
  call void @llvm.lifetime.end.p0(i64 4, ptr %10) #6
  call void @llvm.lifetime.end.p0(i64 4, ptr %9) #6
  call void @llvm.lifetime.end.p0(i64 4, ptr %8) #6
  call void @llvm.lifetime.end.p0(i64 4, ptr %7) #6
  call void @llvm.lifetime.end.p0(i64 8, ptr %6) #6
  call void @llvm.lifetime.end.p0(i64 8, ptr %5) #6
  call void @llvm.lifetime.end.p0(i64 8, ptr %4) #6
  %180 = load i32, ptr %2, align 4
  ret i32 %180
}