; Function Attrs: nounwind uwtable
define internal fastcc range(i32 -10000, 2) i32 @rehash(ptr noundef captures(none) %0) unnamed_addr #3 {
  %2 = getelementptr inbounds nuw i8, ptr %0, i64 40
  %3 = load ptr, ptr %2, align 8, !tbaa !17
  %4 = getelementptr inbounds nuw i8, ptr %0, i64 16
  %5 = load i32, ptr %4, align 8, !tbaa !16
  %6 = getelementptr inbounds nuw i8, ptr %0, i64 20
  %7 = load i32, ptr %6, align 4, !tbaa !12
  %8 = getelementptr inbounds nuw i8, ptr %0, i64 32
  %9 = load double, ptr %8, align 8, !tbaa !14
  %10 = sitofp i32 %5 to double
  %11 = fmul double %9, %10
  %12 = fptosi double %11 to i32
  %spec.select = or i32 %12, 1
  store i32 %spec.select, ptr %4, align 8, !tbaa !16
  store i32 0, ptr %6, align 4, !tbaa !12
  %13 = sext i32 %spec.select to i64
  %14 = shl nsw i64 %13, 3
  %15 = tail call noalias ptr @malloc(i64 noundef %14) #13
  store ptr %15, ptr %2, align 8, !tbaa !17
  %16 = icmp eq ptr %15, null
  br i1 %16, label %20, label %.preheader54

.preheader54:                                     ; preds = %1
  %17 = icmp sgt i32 %12, -1
  br i1 %17, label %.lr.ph.preheader, label %.preheader

.lr.ph.preheader:                                 ; preds = %.preheader54
  %18 = zext nneg i32 %spec.select to i64
  %19 = shl nuw nsw i64 %18, 3
  tail call void @llvm.memset.p0.i64(ptr noundef nonnull align 8 dereferenceable(1) %15, i8 0, i64 %19, i1 false), !tbaa !18
  br label %.preheader

20:                                               ; preds = %1
  store ptr %3, ptr %2, align 8, !tbaa !17
  store i32 %5, ptr %4, align 8, !tbaa !16
  store i32 %7, ptr %6, align 4, !tbaa !12
  br label %84

.preheader:                                       ; preds = %.lr.ph.preheader, %.preheader54
  %21 = icmp sgt i32 %5, 0
  br i1 %21, label %.lr.ph60, label %._crit_edge61

.lr.ph60:                                         ; preds = %.preheader
  %22 = getelementptr inbounds nuw i8, ptr %0, i64 8
  %wide.trip.count = zext nneg i32 %5 to i64
  br label %23

23:                                               ; preds = %.lr.ph60, %._crit_edge
  %24 = phi ptr [ %15, %.lr.ph60 ], [ %80, %._crit_edge ]
  %.promoted = phi i32 [ 0, %.lr.ph60 ], [ %81, %._crit_edge ]
  %25 = phi ptr [ %15, %.lr.ph60 ], [ %82, %._crit_edge ]
  %indvars.iv = phi i64 [ 0, %.lr.ph60 ], [ %indvars.iv.next, %._crit_edge ]
  %26 = getelementptr inbounds nuw ptr, ptr %3, i64 %indvars.iv
  %27 = load ptr, ptr %26, align 8, !tbaa !18
  %.not5356 = icmp eq ptr %27, null
  br i1 %.not5356, label %._crit_edge, label %.lr.ph58

.lr.ph58:                                         ; preds = %23
  %28 = load ptr, ptr %22, align 8, !tbaa !11
  %29 = icmp eq ptr %28, @st__ptrhash
  br i1 %29, label %.lr.ph58.split.us, label %.lr.ph58.split

.lr.ph58.split.us:                                ; preds = %.lr.ph58
  %30 = load i32, ptr %4, align 8, !tbaa !16
  %31 = sext i32 %30 to i64
  br label %32

32:                                               ; preds = %32, %.lr.ph58.split.us
  %33 = phi i32 [ %.promoted, %.lr.ph58.split.us ], [ %43, %32 ]
  %.04957.us = phi ptr [ %27, %.lr.ph58.split.us ], [ %35, %32 ]
  %34 = getelementptr inbounds nuw i8, ptr %.04957.us, i64 16
  %35 = load ptr, ptr %34, align 8, !tbaa !20
  %36 = load ptr, ptr %.04957.us, align 8, !tbaa !26
  %37 = ptrtoint ptr %36 to i64
  %38 = lshr i64 %37, 2
  %39 = urem i64 %38, %31
  %sext = shl i64 %39, 32
  %40 = ashr exact i64 %sext, 29
  %41 = getelementptr inbounds i8, ptr %24, i64 %40
  %42 = load ptr, ptr %41, align 8, !tbaa !18
  store ptr %42, ptr %34, align 8, !tbaa !20
  store ptr %.04957.us, ptr %41, align 8, !tbaa !18
  %43 = add nsw i32 %33, 1
  %.not53.us = icmp eq ptr %35, null
  br i1 %.not53.us, label %._crit_edge.split.us, label %32, !llvm.loop !33

._crit_edge.split.us:                             ; preds = %32
  store i32 %43, ptr %6, align 4, !tbaa !12
  br label %._crit_edge

.lr.ph58.splitthread-pre-split:                   ; preds = %71
  %.pr = load ptr, ptr %22, align 8, !tbaa !11
  br label %.lr.ph58.split

.lr.ph58.split:                                   ; preds = %.lr.ph58, %.lr.ph58.splitthread-pre-split
  %44 = phi ptr [ %.pr, %.lr.ph58.splitthread-pre-split ], [ %28, %.lr.ph58 ]
  %45 = phi ptr [ %72, %.lr.ph58.splitthread-pre-split ], [ %24, %.lr.ph58 ]
  %46 = phi i32 [ %79, %.lr.ph58.splitthread-pre-split ], [ %.promoted, %.lr.ph58 ]
  %47 = phi ptr [ %74, %.lr.ph58.splitthread-pre-split ], [ %25, %.lr.ph58 ]
  %.04957 = phi ptr [ %49, %.lr.ph58.splitthread-pre-split ], [ %27, %.lr.ph58 ]
  %48 = getelementptr inbounds nuw i8, ptr %.04957, i64 16
  %49 = load ptr, ptr %48, align 8, !tbaa !20
  %50 = icmp eq ptr %44, @st__ptrhash
  br i1 %50, label %51, label %59

51:                                               ; preds = %.lr.ph58.split
  %52 = load ptr, ptr %.04957, align 8, !tbaa !26
  %53 = ptrtoint ptr %52 to i64
  %54 = lshr i64 %53, 2
  %55 = load i32, ptr %4, align 8, !tbaa !16
  %56 = sext i32 %55 to i64
  %57 = urem i64 %54, %56
  %58 = trunc i64 %57 to i32
  br label %71

59:                                               ; preds = %.lr.ph58.split
  %60 = icmp eq ptr %44, @st__numhash
  %61 = load ptr, ptr %.04957, align 8, !tbaa !26
  br i1 %60, label %62, label %68

62:                                               ; preds = %59
  %63 = ptrtoint ptr %61 to i64
  %64 = trunc i64 %63 to i32
  %65 = tail call range(i32 0, -2147483648) i32 @llvm.abs.i32(i32 %64, i1 true)
  %66 = load i32, ptr %4, align 8, !tbaa !16
  %67 = srem i32 %65, %66
  br label %71

68:                                               ; preds = %59
  %69 = load i32, ptr %4, align 8, !tbaa !16
  %70 = tail call i32 %44(ptr noundef %61, i32 noundef %69) #14
  %.pre = load ptr, ptr %2, align 8, !tbaa !17
  %.pre64 = load i32, ptr %6, align 4, !tbaa !12
  br label %71

71:                                               ; preds = %62, %68, %51
  %72 = phi ptr [ %45, %51 ], [ %45, %62 ], [ %.pre, %68 ]
  %73 = phi i32 [ %46, %51 ], [ %46, %62 ], [ %.pre64, %68 ]
  %74 = phi ptr [ %47, %51 ], [ %47, %62 ], [ %.pre, %68 ]
  %75 = phi i32 [ %58, %51 ], [ %67, %62 ], [ %70, %68 ]
  %76 = sext i32 %75 to i64
  %77 = getelementptr inbounds ptr, ptr %74, i64 %76
  %78 = load ptr, ptr %77, align 8, !tbaa !18
  store ptr %78, ptr %48, align 8, !tbaa !20
  store ptr %.04957, ptr %77, align 8, !tbaa !18
  %79 = add nsw i32 %73, 1
  store i32 %79, ptr %6, align 4, !tbaa !12
  %.not53 = icmp eq ptr %49, null
  br i1 %.not53, label %._crit_edge, label %.lr.ph58.splitthread-pre-split, !llvm.loop !34

._crit_edge:                                      ; preds = %71, %._crit_edge.split.us, %23
  %80 = phi ptr [ %24, %._crit_edge.split.us ], [ %24, %23 ], [ %72, %71 ]
  %81 = phi i32 [ %43, %._crit_edge.split.us ], [ %.promoted, %23 ], [ %79, %71 ]
  %82 = phi ptr [ %24, %._crit_edge.split.us ], [ %25, %23 ], [ %74, %71 ]
  %indvars.iv.next = add nuw nsw i64 %indvars.iv, 1
  %exitcond.not = icmp eq i64 %indvars.iv.next, %wide.trip.count
  br i1 %exitcond.not, label %._crit_edge61, label %23, !llvm.loop !36

._crit_edge61:                                    ; preds = %._crit_edge, %.preheader
  %.not = icmp eq ptr %3, null
  br i1 %.not, label %84, label %83

83:                                               ; preds = %._crit_edge61
  tail call void @free(ptr noundef nonnull %3) #14
  br label %84

84:                                               ; preds = %83, %._crit_edge61, %20
  %.0 = phi i32 [ -10000, %20 ], [ 1, %._crit_edge61 ], [ 1, %83 ]
  ret i32 %.0
}